
01_stack_call_conv:     file format elf64-littleriscv


Disassembly of section .plt:

0000000000010460 <_PROCEDURE_LINKAGE_TABLE_>:
   10460:	00002397          	auipc	t2,0x2
   10464:	41c30333          	sub	t1,t1,t3
   10468:	ba03be03          	ld	t3,-1120(t2) # 12000 <__TMC_END__>
   1046c:	fd430313          	add	t1,t1,-44
   10470:	ba038293          	add	t0,t2,-1120
   10474:	00135313          	srl	t1,t1,0x1
   10478:	0082b283          	ld	t0,8(t0)
   1047c:	000e0067          	jr	t3 # 1a000 <__global_pointer$+0x7800>

0000000000010480 <__libc_start_main@plt>:
   10480:	00002e17          	auipc	t3,0x2
   10484:	b90e3e03          	ld	t3,-1136(t3) # 12010 <__libc_start_main@GLIBC_2.34>
   10488:	000e0367          	jalr	t1,t3
   1048c:	00000013          	nop

Disassembly of section .text:

0000000000010490 <_start>:
   10490:	022000ef          	jal	104b2 <load_gp>
   10494:	87aa                	mv	a5,a0
   10496:	00000517          	auipc	a0,0x0
   1049a:	08e50513          	add	a0,a0,142 # 10524 <main>
   1049e:	6582                	ld	a1,0(sp)
   104a0:	0030                	add	a2,sp,8
   104a2:	ff017113          	and	sp,sp,-16
   104a6:	4681                	li	a3,0
   104a8:	4701                	li	a4,0
   104aa:	880a                	mv	a6,sp
   104ac:	fd5ff0ef          	jal	10480 <__libc_start_main@plt>
   104b0:	9002                	ebreak

00000000000104b2 <load_gp>:
   104b2:	00002197          	auipc	gp,0x2
   104b6:	34e18193          	add	gp,gp,846 # 12800 <__global_pointer$>
   104ba:	8082                	ret
	...

00000000000104be <deregister_tm_clones>:
   104be:	6549                	lui	a0,0x12
   104c0:	6749                	lui	a4,0x12
   104c2:	00050793          	mv	a5,a0
   104c6:	00070713          	mv	a4,a4
   104ca:	00f70863          	beq	a4,a5,104da <deregister_tm_clones+0x1c>
   104ce:	00000793          	li	a5,0
   104d2:	c781                	beqz	a5,104da <deregister_tm_clones+0x1c>
   104d4:	00050513          	mv	a0,a0
   104d8:	8782                	jr	a5
   104da:	8082                	ret

00000000000104dc <register_tm_clones>:
   104dc:	6549                	lui	a0,0x12
   104de:	00050793          	mv	a5,a0
   104e2:	6749                	lui	a4,0x12
   104e4:	00070593          	mv	a1,a4
   104e8:	8d9d                	sub	a1,a1,a5
   104ea:	4035d793          	sra	a5,a1,0x3
   104ee:	91fd                	srl	a1,a1,0x3f
   104f0:	95be                	add	a1,a1,a5
   104f2:	8585                	sra	a1,a1,0x1
   104f4:	c599                	beqz	a1,10502 <register_tm_clones+0x26>
   104f6:	00000793          	li	a5,0
   104fa:	c781                	beqz	a5,10502 <register_tm_clones+0x26>
   104fc:	00050513          	mv	a0,a0
   10500:	8782                	jr	a5
   10502:	8082                	ret

0000000000010504 <__do_global_dtors_aux>:
   10504:	1141                	add	sp,sp,-16
   10506:	e022                	sd	s0,0(sp)
   10508:	8281c783          	lbu	a5,-2008(gp) # 12028 <completed.0>
   1050c:	e406                	sd	ra,8(sp)
   1050e:	e791                	bnez	a5,1051a <__do_global_dtors_aux+0x16>
   10510:	fafff0ef          	jal	104be <deregister_tm_clones>
   10514:	4785                	li	a5,1
   10516:	82f18423          	sb	a5,-2008(gp) # 12028 <completed.0>
   1051a:	60a2                	ld	ra,8(sp)
   1051c:	6402                	ld	s0,0(sp)
   1051e:	0141                	add	sp,sp,16
   10520:	8082                	ret

0000000000010522 <frame_dummy>:
   10522:	bf6d                	j	104dc <register_tm_clones>

0000000000010524 <main>:
   10524:	1101                	add	sp,sp,-32
   10526:	ec06                	sd	ra,24(sp)
   10528:	e822                	sd	s0,16(sp)
   1052a:	1000                	add	s0,sp,32
   1052c:	4785                	li	a5,1
   1052e:	fef42623          	sw	a5,-20(s0)
   10532:	4789                	li	a5,2
   10534:	fef42423          	sw	a5,-24(s0)
   10538:	478d                	li	a5,3
   1053a:	fef42223          	sw	a5,-28(s0)
   1053e:	4791                	li	a5,4
   10540:	fef42023          	sw	a5,-32(s0)
   10544:	fe042683          	lw	a3,-32(s0)
   10548:	fe442603          	lw	a2,-28(s0)
   1054c:	fe842703          	lw	a4,-24(s0)
   10550:	fec42783          	lw	a5,-20(s0)
   10554:	85ba                	mv	a1,a4
   10556:	853e                	mv	a0,a5
   10558:	010000ef          	jal	10568 <_Z6calleeiiii>
   1055c:	4781                	li	a5,0
   1055e:	853e                	mv	a0,a5
   10560:	60e2                	ld	ra,24(sp)
   10562:	6442                	ld	s0,16(sp)
   10564:	6105                	add	sp,sp,32
   10566:	8082                	ret

0000000000010568 <_Z6calleeiiii>:
   10568:	7179                	add	sp,sp,-48
   1056a:	f422                	sd	s0,40(sp)
   1056c:	1800                	add	s0,sp,48
   1056e:	87aa                	mv	a5,a0
   10570:	8736                	mv	a4,a3
   10572:	fcf42e23          	sw	a5,-36(s0)
   10576:	87ae                	mv	a5,a1
   10578:	fcf42c23          	sw	a5,-40(s0)
   1057c:	87b2                	mv	a5,a2
   1057e:	fcf42a23          	sw	a5,-44(s0)
   10582:	87ba                	mv	a5,a4
   10584:	fcf42823          	sw	a5,-48(s0)
   10588:	fdc42783          	lw	a5,-36(s0)
   1058c:	873e                	mv	a4,a5
   1058e:	fd842783          	lw	a5,-40(s0)
   10592:	9fb9                	addw	a5,a5,a4
   10594:	2781                	sext.w	a5,a5
   10596:	fd442703          	lw	a4,-44(s0)
   1059a:	9fb9                	addw	a5,a5,a4
   1059c:	2781                	sext.w	a5,a5
   1059e:	fd042703          	lw	a4,-48(s0)
   105a2:	9fb9                	addw	a5,a5,a4
   105a4:	fef42623          	sw	a5,-20(s0)
   105a8:	0001                	nop
   105aa:	7422                	ld	s0,40(sp)
   105ac:	6145                	add	sp,sp,48
   105ae:	8082                	ret
